target datalayout = "e-m:e-p270:32:32-p271:32:32-p272:64:64-i64:64-i128:128-f80:128-n8:16:32:64-S128"
target triple = "x86_64-pc-linux-gnu"

; Function Attrs: nounwind uwtable
define i32 @Gia_Sim2CompareZero(ptr noundef %0, i32 noundef %1, i32 noundef %2) #0 {
  %4 = alloca i32, align 4
  %5 = alloca ptr, align 8
  %6 = alloca i32, align 4
  %7 = alloca i32, align 4
  %8 = alloca i32, align 4
  %9 = alloca i32, align 4
  store ptr %0, ptr %5, align 8, !tbaa !59
  store i32 %1, ptr %6, align 4, !tbaa !30
  store i32 %2, ptr %7, align 4, !tbaa !30
  call void @llvm.lifetime.start.p0(i64 4, ptr %8) #11
  %10 = load i32, ptr %7, align 4, !tbaa !30
  %11 = icmp ne i32 %10, 0
  br i1 %11, label %30, label %12

12:                                               ; preds = %3
  store i32 0, ptr %8, align 4, !tbaa !30
  br label %13

13:                                               ; preds = %26, %12
  %14 = load i32, ptr %8, align 4, !tbaa !30
  %15 = load i32, ptr %6, align 4, !tbaa !30
  %16 = icmp slt i32 %14, %15
  br i1 %16, label %17, label %29

17:                                               ; preds = %13
  %18 = load ptr, ptr %5, align 8, !tbaa !59
  %19 = load i32, ptr %8, align 4, !tbaa !30
  %20 = sext i32 %19 to i64
  %21 = getelementptr inbounds i32, ptr %18, i64 %20
  %22 = load i32, ptr %21, align 4, !tbaa !30
  %23 = icmp ne i32 %22, 0
  br i1 %23, label %24, label %25

24:                                               ; preds = %17
  store i32 0, ptr %4, align 4
  store i32 1, ptr %9, align 4
  br label %48

25:                                               ; preds = %17
  br label %26

26:                                               ; preds = %25
  %27 = load i32, ptr %8, align 4, !tbaa !30
  %28 = add nsw i32 %27, 1
  store i32 %28, ptr %8, align 4, !tbaa !30
  br label %13, !llvm.loop !62

29:                                               ; preds = %13
  store i32 1, ptr %4, align 4
  store i32 1, ptr %9, align 4
  br label %48

30:                                               ; preds = %3
  store i32 0, ptr %8, align 4, !tbaa !30
  br label %31

31:                                               ; preds = %44, %30
  %32 = load i32, ptr %8, align 4, !tbaa !30
  %33 = load i32, ptr %6, align 4, !tbaa !30
  %34 = icmp slt i32 %32, %33
  br i1 %34, label %35, label %47

35:                                               ; preds = %31
  %36 = load ptr, ptr %5, align 8, !tbaa !59
  %37 = load i32, ptr %8, align 4, !tbaa !30
  %38 = sext i32 %37 to i64
  %39 = getelementptr inbounds i32, ptr %36, i64 %38
  %40 = load i32, ptr %39, align 4, !tbaa !30
  %41 = icmp ne i32 %40, -1
  br i1 %41, label %42, label %43

42:                                               ; preds = %35
  store i32 0, ptr %4, align 4
  store i32 1, ptr %9, align 4
  br label %48

43:                                               ; preds = %35
  br label %44

44:                                               ; preds = %43
  %45 = load i32, ptr %8, align 4, !tbaa !30
  %46 = add nsw i32 %45, 1
  store i32 %46, ptr %8, align 4, !tbaa !30
  br label %31, !llvm.loop !63

47:                                               ; preds = %31
  store i32 1, ptr %4, align 4
  store i32 1, ptr %9, align 4
  br label %48

48:                                               ; preds = %47, %42, %29, %24
  call void @llvm.lifetime.end.p0(i64 4, ptr %8) #11
  %49 = load i32, ptr %4, align 4
  ret i32 %49
}