; Function Attrs: nofree norecurse nosync nounwind memory(argmem: read) uwtable
define range(i32 0, 2) i32 @Gia_Sim2CompareZero(ptr noundef readonly captures(none) %0, i32 noundef %1, i32 noundef %2) local_unnamed_addr #8 {
  %.not = icmp eq i32 %2, 0
  %4 = icmp sgt i32 %1, 0
  br i1 %.not, label %.preheader, label %.preheader14

.preheader14:                                     ; preds = %3
  br i1 %4, label %.lr.ph.preheader, label %.loopexit

.lr.ph.preheader:                                 ; preds = %.preheader14
  %wide.trip.count = zext nneg i32 %1 to i64
  br label %.lr.ph

.preheader:                                       ; preds = %3
  br i1 %4, label %.lr.ph21.preheader, label %.loopexit

.lr.ph21.preheader:                               ; preds = %.preheader
  %wide.trip.count31 = zext nneg i32 %1 to i64
  br label %.lr.ph21

5:                                                ; preds = %.lr.ph21
  %indvars.iv.next29 = add nuw nsw i64 %indvars.iv28, 1
  %exitcond32.not = icmp eq i64 %indvars.iv.next29, %wide.trip.count31
  br i1 %exitcond32.not, label %.loopexit, label %.lr.ph21, !llvm.loop !56

.lr.ph21:                                         ; preds = %.lr.ph21.preheader, %5
  %indvars.iv28 = phi i64 [ 0, %.lr.ph21.preheader ], [ %indvars.iv.next29, %5 ]
  %6 = getelementptr inbounds nuw i32, ptr %0, i64 %indvars.iv28
  %7 = load i32, ptr %6, align 4, !tbaa !48
  %.not12 = icmp eq i32 %7, 0
  br i1 %.not12, label %5, label %.loopexit

8:                                                ; preds = %.lr.ph
  %indvars.iv.next = add nuw nsw i64 %indvars.iv, 1
  %exitcond.not = icmp eq i64 %indvars.iv.next, %wide.trip.count
  br i1 %exitcond.not, label %.loopexit, label %.lr.ph, !llvm.loop !57

.lr.ph:                                           ; preds = %.lr.ph.preheader, %8
  %indvars.iv = phi i64 [ 0, %.lr.ph.preheader ], [ %indvars.iv.next, %8 ]
  %9 = getelementptr inbounds nuw i32, ptr %0, i64 %indvars.iv
  %10 = load i32, ptr %9, align 4, !tbaa !48
  %.not13 = icmp eq i32 %10, -1
  br i1 %.not13, label %8, label %.loopexit

.loopexit:                                        ; preds = %.lr.ph, %8, %.lr.ph21, %5, %.preheader14, %.preheader
  %.011 = phi i32 [ 1, %.preheader ], [ 1, %.preheader14 ], [ 0, %.lr.ph21 ], [ 1, %5 ], [ 0, %.lr.ph ], [ 1, %8 ]
  ret i32 %.011
}